target datalayout = "e-m:e-p270:32:32-p271:32:32-p272:64:64-i64:64-i128:128-f80:128-n8:16:32:64-S128"
target triple = "x86_64-pc-linux-gnu"

%struct.cl_cvd = type { ptr, i32, i32, i32, ptr, ptr, ptr, i32 }

@.str = private unnamed_addr constant [21 x i8] c"1.4.0-devel-20240424\00", align 1
@.str.4 = private unnamed_addr constant [13 x i8] c"%s/daily.cvd\00", align 1
@.str.5 = private unnamed_addr constant [13 x i8] c"%s/daily.cld\00", align 1
@.str.6 = private unnamed_addr constant [11 x i8] c"ClamAV %s\0A\00", align 1
@.str.7 = private unnamed_addr constant [16 x i8] c"ClamAV %s/%u/%s\00", align 1

; Function Attrs: nounwind uwtable
define ptr @get_version() #0 {
  ret ptr @.str
}

; Function Attrs: nounwind uwtable
define void @print_version(ptr noundef %0) #0 {
  %2 = alloca ptr, align 8
  %3 = alloca ptr, align 8
  %4 = alloca ptr, align 8
  %5 = alloca ptr, align 8
  %6 = alloca ptr, align 8
  %7 = alloca i64, align 8
  %8 = alloca i32, align 4
  store ptr %0, ptr %2, align 8
  store ptr null, ptr %3, align 8
  store i32 0, ptr %8, align 4
  %9 = load ptr, ptr %2, align 8
  %10 = icmp ne ptr %9, null
  br i1 %10, label %11, label %13

11:                                               ; preds = %1
  %12 = load ptr, ptr %2, align 8
  store ptr %12, ptr %5, align 8
  br label %15

13:                                               ; preds = %1
  %14 = call ptr @freshdbdir()
  store ptr %14, ptr %3, align 8
  store ptr %14, ptr %5, align 8
  br label %15

15:                                               ; preds = %13, %11
  %16 = load ptr, ptr %5, align 8
  %17 = icmp ne ptr %16, null
  br i1 %17, label %21, label %18

18:                                               ; preds = %15
  %19 = call ptr @get_version()
  %20 = call i32 (ptr, ...) @printf(ptr noundef @.str.6, ptr noundef %19)
  br label %102

21:                                               ; preds = %15
  %22 = load ptr, ptr %5, align 8
  %23 = call i64 @strlen(ptr noundef %22) #8
  %24 = add i64 %23, 11
  %25 = call noalias ptr @malloc(i64 noundef %24) #9
  store ptr %25, ptr %4, align 8
  %26 = icmp ne ptr %25, null
  br i1 %26, label %33, label %27

27:                                               ; preds = %21
  %28 = load ptr, ptr %2, align 8
  %29 = icmp ne ptr %28, null
  br i1 %29, label %32, label %30

30:                                               ; preds = %27
  %31 = load ptr, ptr %3, align 8
  call void @free(ptr noundef %31) #10
  br label %32

32:                                               ; preds = %30, %27
  br label %102

33:                                               ; preds = %21
  %34 = load ptr, ptr %4, align 8
  %35 = load ptr, ptr %5, align 8
  %36 = call i32 (ptr, ptr, ...) @sprintf(ptr noundef %34, ptr noundef @.str.4, ptr noundef %35) #10
  %37 = load ptr, ptr %4, align 8
  %38 = call i32 @access(ptr noundef %37, i32 noundef 4) #10
  %39 = icmp ne i32 %38, 0
  br i1 %39, label %55, label %40

40:                                               ; preds = %33
  %41 = load ptr, ptr %4, align 8
  %42 = call ptr @cl_cvdhead(ptr noundef %41)
  store ptr %42, ptr %6, align 8
  %43 = load ptr, ptr %6, align 8
  %44 = icmp ne ptr %43, null
  br i1 %44, label %45, label %54

45:                                               ; preds = %40
  %46 = load ptr, ptr %6, align 8
  %47 = getelementptr inbounds %struct.cl_cvd, ptr %46, i32 0, i32 1
  %48 = load i32, ptr %47, align 8
  store i32 %48, ptr %8, align 4
  %49 = load ptr, ptr %6, align 8
  %50 = getelementptr inbounds %struct.cl_cvd, ptr %49, i32 0, i32 7
  %51 = load i32, ptr %50, align 8
  %52 = zext i32 %51 to i64
  store i64 %52, ptr %7, align 8
  %53 = load ptr, ptr %6, align 8
  call void @cl_cvdfree(ptr noundef %53)
  br label %54

54:                                               ; preds = %45, %40
  br label %55

55:                                               ; preds = %54, %33
  %56 = load ptr, ptr %4, align 8
  %57 = load ptr, ptr %5, align 8
  %58 = call i32 (ptr, ptr, ...) @sprintf(ptr noundef %56, ptr noundef @.str.5, ptr noundef %57) #10
  %59 = load ptr, ptr %4, align 8
  %60 = call i32 @access(ptr noundef %59, i32 noundef 4) #10
  %61 = icmp ne i32 %60, 0
  br i1 %61, label %84, label %62

62:                                               ; preds = %55
  %63 = load ptr, ptr %4, align 8
  %64 = call ptr @cl_cvdhead(ptr noundef %63)
  store ptr %64, ptr %6, align 8
  %65 = load ptr, ptr %6, align 8
  %66 = icmp ne ptr %65, null
  br i1 %66, label %67, label %83

67:                                               ; preds = %62
  %68 = load ptr, ptr %6, align 8
  %69 = getelementptr inbounds %struct.cl_cvd, ptr %68, i32 0, i32 1
  %70 = load i32, ptr %69, align 8
  %71 = load i32, ptr %8, align 4
  %72 = icmp ugt i32 %70, %71
  br i1 %72, label %73, label %81

73:                                               ; preds = %67
  %74 = load ptr, ptr %6, align 8
  %75 = getelementptr inbounds %struct.cl_cvd, ptr %74, i32 0, i32 1
  %76 = load i32, ptr %75, align 8
  store i32 %76, ptr %8, align 4
  %77 = load ptr, ptr %6, align 8
  %78 = getelementptr inbounds %struct.cl_cvd, ptr %77, i32 0, i32 7
  %79 = load i32, ptr %78, align 8
  %80 = zext i32 %79 to i64
  store i64 %80, ptr %7, align 8
  br label %81

81:                                               ; preds = %73, %67
  %82 = load ptr, ptr %6, align 8
  call void @cl_cvdfree(ptr noundef %82)
  br label %83

83:                                               ; preds = %81, %62
  br label %84

84:                                               ; preds = %83, %55
  %85 = load ptr, ptr %2, align 8
  %86 = icmp ne ptr %85, null
  br i1 %86, label %89, label %87

87:                                               ; preds = %84
  %88 = load ptr, ptr %3, align 8
  call void @free(ptr noundef %88) #10
  br label %89

89:                                               ; preds = %87, %84
  %90 = load i32, ptr %8, align 4
  %91 = icmp ne i32 %90, 0
  br i1 %91, label %92, label %97

92:                                               ; preds = %89
  %93 = call ptr @get_version()
  %94 = load i32, ptr %8, align 4
  %95 = call ptr @ctime(ptr noundef %7) #10
  %96 = call i32 (ptr, ...) @printf(ptr noundef @.str.7, ptr noundef %93, i32 noundef %94, ptr noundef %95)
  br label %100

97:                                               ; preds = %89
  %98 = call ptr @get_version()
  %99 = call i32 (ptr, ...) @printf(ptr noundef @.str.6, ptr noundef %98)
  br label %100

100:                                              ; preds = %97, %92
  %101 = load ptr, ptr %4, align 8
  call void @free(ptr noundef %101) #10
  br label %102

102:                                              ; preds = %100, %32, %18
  ret void
}