; Function Attrs: nounwind uwtable
define void @print_version(ptr noundef %0) local_unnamed_addr #1 {
  %2 = alloca i64, align 8
  %.not = icmp eq ptr %0, null
  br i1 %.not, label %3, label %.thread

3:                                                ; preds = %1
  %4 = tail call ptr @freshdbdir()
  %.not35 = icmp eq ptr %4, null
  br i1 %.not35, label %5, label %.thread

5:                                                ; preds = %3
  %6 = tail call i32 (ptr, ...) @printf(ptr noundef nonnull dereferenceable(1) @.str.6, ptr noundef nonnull @.str)
  br label %46

.thread:                                          ; preds = %1, %3
  %.02846 = phi ptr [ %4, %3 ], [ %0, %1 ]
  %.02945 = phi ptr [ %4, %3 ], [ null, %1 ]
  %7 = tail call i64 @strlen(ptr noundef nonnull dereferenceable(1) %.02846) #19
  %8 = add i64 %7, 11
  %9 = tail call noalias ptr @malloc(i64 noundef %8) #20
  %.not36 = icmp eq ptr %9, null
  br i1 %.not36, label %10, label %12

10:                                               ; preds = %.thread
  br i1 %.not, label %11, label %46

11:                                               ; preds = %10
  tail call void @free(ptr noundef %.02945) #18
  br label %46

12:                                               ; preds = %.thread
  %13 = tail call i32 (ptr, ptr, ...) @sprintf(ptr noundef nonnull dereferenceable(1) %9, ptr noundef nonnull dereferenceable(1) @.str.4, ptr noundef nonnull %.02846) #18
  %14 = tail call i32 @access(ptr noundef nonnull %9, i32 noundef 4) #18
  %.not37 = icmp eq i32 %14, 0
  br i1 %.not37, label %15, label %23

15:                                               ; preds = %12
  %16 = tail call ptr @cl_cvdhead(ptr noundef nonnull %9) #18
  %.not38 = icmp eq ptr %16, null
  br i1 %.not38, label %23, label %17

17:                                               ; preds = %15
  %18 = getelementptr inbounds i8, ptr %16, i64 8
  %19 = load i32, ptr %18, align 8
  %20 = getelementptr inbounds i8, ptr %16, i64 48
  %21 = load i32, ptr %20, align 8
  %22 = zext i32 %21 to i64
  store i64 %22, ptr %2, align 8
  tail call void @cl_cvdfree(ptr noundef nonnull %16) #18
  br label %23

23:                                               ; preds = %15, %17, %12
  %.0 = phi i32 [ 0, %12 ], [ %19, %17 ], [ 0, %15 ]
  %24 = tail call i32 (ptr, ptr, ...) @sprintf(ptr noundef nonnull dereferenceable(1) %9, ptr noundef nonnull dereferenceable(1) @.str.5, ptr noundef nonnull %.02846) #18
  %25 = tail call i32 @access(ptr noundef nonnull %9, i32 noundef 4) #18
  %.not39 = icmp eq i32 %25, 0
  br i1 %.not39, label %26, label %37

26:                                               ; preds = %23
  %27 = tail call ptr @cl_cvdhead(ptr noundef nonnull %9) #18
  %.not40 = icmp eq ptr %27, null
  br i1 %.not40, label %37, label %28

28:                                               ; preds = %26
  %29 = getelementptr inbounds i8, ptr %27, i64 8
  %30 = load i32, ptr %29, align 8
  %31 = icmp ugt i32 %30, %.0
  br i1 %31, label %32, label %36

32:                                               ; preds = %28
  %33 = getelementptr inbounds i8, ptr %27, i64 48
  %34 = load i32, ptr %33, align 8
  %35 = zext i32 %34 to i64
  store i64 %35, ptr %2, align 8
  br label %36

36:                                               ; preds = %32, %28
  %.1 = phi i32 [ %30, %32 ], [ %.0, %28 ]
  tail call void @cl_cvdfree(ptr noundef nonnull %27) #18
  br label %37

37:                                               ; preds = %26, %36, %23
  %.2 = phi i32 [ %.0, %23 ], [ %.1, %36 ], [ %.0, %26 ]
  br i1 %.not, label %38, label %39

38:                                               ; preds = %37
  tail call void @free(ptr noundef %.02945) #18
  br label %39

39:                                               ; preds = %38, %37
  %.not41 = icmp eq i32 %.2, 0
  br i1 %.not41, label %43, label %40

40:                                               ; preds = %39
  %41 = call ptr @ctime(ptr noundef nonnull %2) #18
  %42 = call i32 (ptr, ...) @printf(ptr noundef nonnull dereferenceable(1) @.str.7, ptr noundef nonnull @.str, i32 noundef %.2, ptr noundef %41)
  br label %45

43:                                               ; preds = %39
  %44 = tail call i32 (ptr, ...) @printf(ptr noundef nonnull dereferenceable(1) @.str.6, ptr noundef nonnull @.str)
  br label %45

45:                                               ; preds = %43, %40
  call void @free(ptr noundef nonnull %9) #18
  br label %46

46:                                               ; preds = %10, %11, %45, %5
  ret void
}